target datalayout = "e-m:e-p270:32:32-p271:32:32-p272:64:64-i64:64-i128:128-f80:128-n8:16:32:64-S128"
target triple = "x86_64-pc-linux-gnu"

%"class.open3d::core::Dtype" = type { i32, i64, [16 x i8] }

@_ZN6open3d4core9UndefinedE = external global %"class.open3d::core::Dtype", align 8
@_ZN6open3d4core7Float32E = external global %"class.open3d::core::Dtype", align 8
@_ZN6open3d4core5UInt8E = external global %"class.open3d::core::Dtype", align 8
@_ZN6open3d4core6UInt16E = external global %"class.open3d::core::Dtype", align 8
@_ZN6open3d4core5Int32E = external global %"class.open3d::core::Dtype", align 8
@_ZN6open3d4core7Float64E = external global %"class.open3d::core::Dtype", align 8

; Function Attrs: mustprogress nounwind ssp uwtable
define internal void @_ZN6open3d1t2io12_GLOBAL__N_18GetDtypeE10e_ply_type(ptr dead_on_unwind noalias writable sret(%"class.open3d::core::Dtype") align 8 %0, i32 noundef %1) #1 {
  %3 = alloca i32, align 4
  store i32 %1, ptr %3, align 4, !tbaa !167
  %4 = load i32, ptr %3, align 4, !tbaa !167
  %5 = icmp eq i32 %4, 1
  br i1 %5, label %9, label %6

6:                                                ; preds = %2
  %7 = load i32, ptr %3, align 4, !tbaa !167
  %8 = icmp eq i32 %7, 9
  br i1 %8, label %9, label %10

9:                                                ; preds = %6, %2
  call void @llvm.memcpy.p0.p0.i64(ptr align 8 %0, ptr align 8 @_ZN6open3d4core5UInt8E, i64 32, i1 false), !tbaa.struct !187
  br label %36

10:                                               ; preds = %6
  %11 = load i32, ptr %3, align 4, !tbaa !167
  %12 = icmp eq i32 %11, 3
  br i1 %12, label %13, label %14

13:                                               ; preds = %10
  call void @llvm.memcpy.p0.p0.i64(ptr align 8 %0, ptr align 8 @_ZN6open3d4core6UInt16E, i64 32, i1 false), !tbaa.struct !187
  br label %36

14:                                               ; preds = %10
  %15 = load i32, ptr %3, align 4, !tbaa !167
  %16 = icmp eq i32 %15, 4
  br i1 %16, label %20, label %17

17:                                               ; preds = %14
  %18 = load i32, ptr %3, align 4, !tbaa !167
  %19 = icmp eq i32 %18, 12
  br i1 %19, label %20, label %21

20:                                               ; preds = %17, %14
  call void @llvm.memcpy.p0.p0.i64(ptr align 8 %0, ptr align 8 @_ZN6open3d4core5Int32E, i64 32, i1 false), !tbaa.struct !187
  br label %36

21:                                               ; preds = %17
  %22 = load i32, ptr %3, align 4, !tbaa !167
  %23 = icmp eq i32 %22, 6
  br i1 %23, label %27, label %24

24:                                               ; preds = %21
  %25 = load i32, ptr %3, align 4, !tbaa !167
  %26 = icmp eq i32 %25, 14
  br i1 %26, label %27, label %28

27:                                               ; preds = %24, %21
  call void @llvm.memcpy.p0.p0.i64(ptr align 8 %0, ptr align 8 @_ZN6open3d4core7Float32E, i64 32, i1 false), !tbaa.struct !187
  br label %36

28:                                               ; preds = %24
  %29 = load i32, ptr %3, align 4, !tbaa !167
  %30 = icmp eq i32 %29, 7
  br i1 %30, label %34, label %31

31:                                               ; preds = %28
  %32 = load i32, ptr %3, align 4, !tbaa !167
  %33 = icmp eq i32 %32, 15
  br i1 %33, label %34, label %35

34:                                               ; preds = %31, %28
  call void @llvm.memcpy.p0.p0.i64(ptr align 8 %0, ptr align 8 @_ZN6open3d4core7Float64E, i64 32, i1 false), !tbaa.struct !187
  br label %36

35:                                               ; preds = %31
  call void @llvm.memcpy.p0.p0.i64(ptr align 8 %0, ptr align 8 @_ZN6open3d4core9UndefinedE, i64 32, i1 false), !tbaa.struct !187
  br label %36

36:                                               ; preds = %35, %34, %27, %20, %13, %9
  ret void
}