; Function Attrs: mustprogress nofree norecurse nosync nounwind ssp willreturn memory(readwrite, inaccessiblemem: none) uwtable
define internal fastcc void @_ZN6open3d1t2io12_GLOBAL__N_18GetDtypeE10e_ply_type(ptr dead_on_unwind noalias nonnull writable writeonly align 8 captures(none) initializes((0, 32)) %0, i32 noundef %1) unnamed_addr #13 {
  %3 = and i32 %1, -9
  %or.cond = icmp eq i32 %3, 1
  br i1 %or.cond, label %4, label %5

4:                                                ; preds = %2
  tail call void @llvm.memcpy.p0.p0.i64(ptr noundef nonnull align 8 dereferenceable(32) %0, ptr noundef nonnull align 8 dereferenceable(32) @_ZN6open3d4core5UInt8E, i64 32, i1 false), !tbaa.struct !55
  br label %13

5:                                                ; preds = %2
  %6 = icmp eq i32 %1, 3
  br i1 %6, label %7, label %8

7:                                                ; preds = %5
  tail call void @llvm.memcpy.p0.p0.i64(ptr noundef nonnull align 8 dereferenceable(32) %0, ptr noundef nonnull align 8 dereferenceable(32) @_ZN6open3d4core6UInt16E, i64 32, i1 false), !tbaa.struct !55
  br label %13

8:                                                ; preds = %5
  switch i32 %3, label %12 [
    i32 4, label %9
    i32 6, label %10
    i32 7, label %11
  ]

9:                                                ; preds = %8
  tail call void @llvm.memcpy.p0.p0.i64(ptr noundef nonnull align 8 dereferenceable(32) %0, ptr noundef nonnull align 8 dereferenceable(32) @_ZN6open3d4core5Int32E, i64 32, i1 false), !tbaa.struct !55
  br label %13

10:                                               ; preds = %8
  tail call void @llvm.memcpy.p0.p0.i64(ptr noundef nonnull align 8 dereferenceable(32) %0, ptr noundef nonnull align 8 dereferenceable(32) @_ZN6open3d4core7Float32E, i64 32, i1 false), !tbaa.struct !55
  br label %13

11:                                               ; preds = %8
  tail call void @llvm.memcpy.p0.p0.i64(ptr noundef nonnull align 8 dereferenceable(32) %0, ptr noundef nonnull align 8 dereferenceable(32) @_ZN6open3d4core7Float64E, i64 32, i1 false), !tbaa.struct !55
  br label %13

12:                                               ; preds = %8
  tail call void @llvm.memcpy.p0.p0.i64(ptr noundef nonnull align 8 dereferenceable(32) %0, ptr noundef nonnull align 8 dereferenceable(32) @_ZN6open3d4core9UndefinedE, i64 32, i1 false), !tbaa.struct !55
  br label %13

13:                                               ; preds = %12, %11, %10, %9, %7, %4
  ret void
}